target datalayout = "e-m:e-p270:32:32-p271:32:32-p272:64:64-i64:64-i128:128-f80:128-n8:16:32:64-S128"
target triple = "x86_64-pc-linux-gnu"

%struct.AVPixFmtDescriptor = type { ptr, i8, i8, i8, i64, [4 x %struct.AVComponentDescriptor], ptr }
%struct.AVComponentDescriptor = type { i32, i32, i32, i32, i32 }

; Function Attrs: nounwind uwtable
define i32 @ff_fill_rgba_map(ptr noundef %0, i32 noundef %1) #0 {
  %3 = alloca i32, align 4
  %4 = alloca ptr, align 8
  %5 = alloca i32, align 4
  %6 = alloca ptr, align 8
  %7 = alloca i32, align 4
  store ptr %0, ptr %4, align 8, !tbaa !4
  store i32 %1, ptr %5, align 4, !tbaa !9
  call void @llvm.lifetime.start.p0(i64 8, ptr %6) #8
  %8 = load i32, ptr %5, align 4, !tbaa !9
  %9 = call ptr @av_pix_fmt_desc_get(i32 noundef %8)
  store ptr %9, ptr %6, align 8, !tbaa !11
  %10 = load ptr, ptr %6, align 8, !tbaa !11
  %11 = getelementptr inbounds nuw %struct.AVPixFmtDescriptor, ptr %10, i32 0, i32 4
  %12 = load i64, ptr %11, align 8, !tbaa !13
  %13 = and i64 %12, 32
  %14 = icmp ne i64 %13, 0
  br i1 %14, label %16, label %15

15:                                               ; preds = %2
  store i32 -22, ptr %3, align 4
  store i32 1, ptr %7, align 4
  br label %20

16:                                               ; preds = %2
  %17 = load ptr, ptr %6, align 8, !tbaa !11
  %18 = load ptr, ptr %4, align 8, !tbaa !4
  %19 = call i32 @fill_map(ptr noundef %17, ptr noundef %18)
  store i32 %19, ptr %3, align 4
  store i32 1, ptr %7, align 4
  br label %20

20:                                               ; preds = %16, %15
  call void @llvm.lifetime.end.p0(i64 8, ptr %6) #8
  %21 = load i32, ptr %3, align 4
  ret i32 %21
}